target datalayout = "e-m:e-p270:32:32-p271:32:32-p272:64:64-i64:64-i128:128-f80:128-n8:16:32:64-S128"
target triple = "x86_64-pc-linux-gnu"

; Function Attrs: mustprogress nounwind uwtable
define noundef i32 @_ZN7rocksdb27PackIndexTypeAndNumRestartsENS_22BlockBasedTableOptions18DataBlockIndexTypeEj(i8 noundef signext %0, i32 noundef %1) #0 {
  %3 = alloca i8, align 1
  %4 = alloca i32, align 4
  %5 = alloca i32, align 4
  store i8 %0, ptr %3, align 1, !tbaa !4
  store i32 %1, ptr %4, align 4, !tbaa !8
  %6 = load i32, ptr %4, align 4, !tbaa !8
  %7 = icmp ugt i32 %6, 2147483647
  br i1 %7, label %8, label %9

8:                                                ; preds = %2
  br label %9

9:                                                ; preds = %8, %2
  call void @llvm.lifetime.start.p0(i64 4, ptr %5) #2
  %10 = load i32, ptr %4, align 4, !tbaa !8
  store i32 %10, ptr %5, align 4, !tbaa !8
  %11 = load i8, ptr %3, align 1, !tbaa !4
  %12 = sext i8 %11 to i32
  %13 = icmp eq i32 %12, 1
  br i1 %13, label %14, label %17

14:                                               ; preds = %9
  %15 = load i32, ptr %5, align 4, !tbaa !8
  %16 = or i32 %15, -2147483648
  store i32 %16, ptr %5, align 4, !tbaa !8
  br label %23

17:                                               ; preds = %9
  %18 = load i8, ptr %3, align 1, !tbaa !4
  %19 = sext i8 %18 to i32
  %20 = icmp ne i32 %19, 0
  br i1 %20, label %21, label %22

21:                                               ; preds = %17
  br label %22

22:                                               ; preds = %21, %17
  br label %23

23:                                               ; preds = %22, %14
  %24 = load i32, ptr %5, align 4, !tbaa !8
  call void @llvm.lifetime.end.p0(i64 4, ptr %5) #2
  ret i32 %24
}

; Function Attrs: nocallback nofree nosync nounwind willreturn memory(argmem: readwrite)
declare void @llvm.lifetime.start.p0(i64 immarg, ptr captures(none)) #1

; Function Attrs: nocallback nofree nosync nounwind willreturn memory(argmem: readwrite)
declare void @llvm.lifetime.end.p0(i64 immarg, ptr captures(none)) #1

; Function Attrs: mustprogress nounwind uwtable
define void @_ZN7rocksdb29UnPackIndexTypeAndNumRestartsEjPNS_22BlockBasedTableOptions18DataBlockIndexTypeEPj(i32 noundef %0, ptr noundef %1, ptr noundef %2) #0 {
  %4 = alloca i32, align 4
  %5 = alloca ptr, align 8
  %6 = alloca ptr, align 8
  store i32 %0, ptr %4, align 4, !tbaa !8
  store ptr %1, ptr %5, align 8, !tbaa !10
  store ptr %2, ptr %6, align 8, !tbaa !12
  %7 = load ptr, ptr %5, align 8, !tbaa !10
  %8 = icmp ne ptr %7, null
  br i1 %8, label %9, label %18

9:                                                ; preds = %3
  %10 = load i32, ptr %4, align 4, !tbaa !8
  %11 = and i32 %10, -2147483648
  %12 = icmp ne i32 %11, 0
  br i1 %12, label %13, label %15

13:                                               ; preds = %9
  %14 = load ptr, ptr %5, align 8, !tbaa !10
  store i8 1, ptr %14, align 1, !tbaa !4
  br label %17

15:                                               ; preds = %9
  %16 = load ptr, ptr %5, align 8, !tbaa !10
  store i8 0, ptr %16, align 1, !tbaa !4
  br label %17

17:                                               ; preds = %15, %13
  br label %18

18:                                               ; preds = %17, %3
  %19 = load ptr, ptr %6, align 8, !tbaa !12
  %20 = icmp ne ptr %19, null
  br i1 %20, label %21, label %25

21:                                               ; preds = %18
  %22 = load i32, ptr %4, align 4, !tbaa !8
  %23 = and i32 %22, 2147483647
  %24 = load ptr, ptr %6, align 8, !tbaa !12
  store i32 %23, ptr %24, align 4, !tbaa !8
  br label %25

25:                                               ; preds = %21, %18
  ret void
}


!llvm.module.flags = !{!0, !1, !2, !3}

!0 = !{i32 1, !"wchar_size", i32 4}
!1 = !{i32 8, !"PIC Level", i32 2}
!2 = !{i32 7, !"uwtable", i32 2}
!3 = !{i32 7, !"frame-pointer", i32 1}
!4 = !{!5, !5, i64 0}
!5 = !{!"_ZTSN7rocksdb22BlockBasedTableOptions18DataBlockIndexTypeE", !6, i64 0}
!6 = !{!"omnipotent char", !7, i64 0}
!7 = !{!"Simple C++ TBAA"}
!8 = !{!9, !9, i64 0}
!9 = !{!"int", !6, i64 0}
!10 = !{!11, !11, i64 0}
!11 = !{!"any pointer", !6, i64 0}
!12 = !{!13, !13, i64 0}
!13 = !{!"p1 int", !11, i64 0}
