; ModuleID = 'bench/rocksdb/original/data_block_footer.ll'
source_filename = "bench/rocksdb/original/data_block_footer.ll"
target datalayout = "e-m:e-p270:32:32-p271:32:32-p272:64:64-i64:64-i128:128-f80:128-n8:16:32:64-S128"
target triple = "x86_64-pc-linux-gnu"

; Function Attrs: mustprogress nofree norecurse nosync nounwind willreturn memory(none) uwtable
define noundef i32 @_ZN7rocksdb27PackIndexTypeAndNumRestartsENS_22BlockBasedTableOptions18DataBlockIndexTypeEj(i8 noundef signext %0, i32 noundef %1) local_unnamed_addr #0 {
  %3 = icmp eq i8 %0, 1
  %4 = or i32 %1, -2147483648
  %.0 = select i1 %3, i32 %4, i32 %1
  ret i32 %.0
}

; Function Attrs: mustprogress nofree norecurse nosync nounwind willreturn memory(argmem: write) uwtable
define void @_ZN7rocksdb29UnPackIndexTypeAndNumRestartsEjPNS_22BlockBasedTableOptions18DataBlockIndexTypeEPj(i32 noundef %0, ptr noundef writeonly %1, ptr noundef writeonly %2) local_unnamed_addr #1 {
  %.not = icmp eq ptr %1, null
  br i1 %.not, label %4, label %.sink.split

.sink.split:                                      ; preds = %3
  %.lobit = lshr i32 %0, 31
  %. = trunc nuw nsw i32 %.lobit to i8
  store i8 %., ptr %1, align 1, !tbaa !4
  br label %4

4:                                                ; preds = %.sink.split, %3
  %.not8 = icmp eq ptr %2, null
  br i1 %.not8, label %7, label %5

5:                                                ; preds = %4
  %6 = and i32 %0, 2147483647
  store i32 %6, ptr %2, align 4, !tbaa !8
  br label %7

7:                                                ; preds = %5, %4
  ret void
}


!llvm.module.flags = !{!0, !1, !2, !3}

!0 = !{i32 1, !"wchar_size", i32 4}
!1 = !{i32 8, !"PIC Level", i32 2}
!2 = !{i32 7, !"uwtable", i32 2}
!3 = !{i32 7, !"frame-pointer", i32 1}
!4 = !{!5, !5, i64 0}
!5 = !{!"_ZTSN7rocksdb22BlockBasedTableOptions18DataBlockIndexTypeE", !6, i64 0}
!6 = !{!"omnipotent char", !7, i64 0}
!7 = !{!"Simple C++ TBAA"}
!8 = !{!9, !9, i64 0}
!9 = !{!"int", !6, i64 0}
